; Function Attrs: mustprogress nounwind uwtable
define internal void @_ZN12_GLOBAL__N_121ObjCPropertyOpBuilderD0Ev(ptr noundef nonnull align 8 dereferenceable(136) %0) unnamed_addr #0 align 2 {
  store ptr getelementptr inbounds inrange(-16, 56) (i8, ptr @_ZTVN12_GLOBAL__N_115PseudoOpBuilderE, i64 16), ptr %0, align 8
  %2 = getelementptr inbounds nuw i8, ptr %0, i64 32
  %3 = tail call noundef i64 @_ZNK4llvm15SmallVectorBaseIjE4sizeEv(ptr noundef nonnull align 8 dereferenceable(16) %2) #18
  %4 = load ptr, ptr %2, align 8
  %5 = getelementptr inbounds i8, ptr %0, i64 48
  %6 = icmp eq ptr %4, %5
  br i1 %6, label %_ZN12_GLOBAL__N_121ObjCPropertyOpBuilderD2Ev.exit, label %7

7:                                                ; preds = %1
  tail call void @free(ptr noundef %4) #18
  br label %_ZN12_GLOBAL__N_121ObjCPropertyOpBuilderD2Ev.exit

_ZN12_GLOBAL__N_121ObjCPropertyOpBuilderD2Ev.exit: ; preds = %1, %7
  tail call void @_ZdlPvm(ptr noundef nonnull %0, i64 noundef 136) #19
  ret void
}